; ModuleID = '39/1834.c'
source_filename = "39/1834.c"
target datalayout = "e-m:e-p270:32:32-p271:32:32-p272:64:64-i64:64-f80:128-n8:16:32:64-S128"
target triple = "x86_64-pc-linux-gnu"

%struct.student = type { [20 x i8], i32, i32, i8, i8, i32, %struct.student* }

@.str = private unnamed_addr constant [3 x i8] c"%d\00", align 1
@.str.1 = private unnamed_addr constant [18 x i8] c"%s %d %d %c %c %d\00", align 1
@.str.2 = private unnamed_addr constant [9 x i8] c"%s\0A%d\0A%d\00", align 1

; Function Attrs: noinline nounwind uwtable
define dso_local %struct.student* @create() #0 {
  %1 = alloca i32, align 4
  %2 = alloca %struct.student*, align 8
  %3 = alloca %struct.student*, align 8
  %4 = alloca %struct.student*, align 8
  %5 = alloca i32, align 4
  %6 = call i32 (i8*, ...) @__isoc99_scanf(i8* getelementptr inbounds ([3 x i8], [3 x i8]* @.str, i64 0, i64 0), i32* %1)
  %7 = call noalias i8* @malloc(i64 100) #3
  %8 = bitcast i8* %7 to %struct.student*
  store %struct.student* %8, %struct.student** %4, align 8
  store %struct.student* %8, %struct.student** %3, align 8
  %9 = load %struct.student*, %struct.student** %3, align 8
  %10 = getelementptr inbounds %struct.student, %struct.student* %9, i32 0, i32 0
  %11 = getelementptr inbounds [20 x i8], [20 x i8]* %10, i64 0, i64 0
  %12 = load %struct.student*, %struct.student** %3, align 8
  %13 = getelementptr inbounds %struct.student, %struct.student* %12, i32 0, i32 1
  %14 = load %struct.student*, %struct.student** %3, align 8
  %15 = getelementptr inbounds %struct.student, %struct.student* %14, i32 0, i32 2
  %16 = load %struct.student*, %struct.student** %3, align 8
  %17 = getelementptr inbounds %struct.student, %struct.student* %16, i32 0, i32 3
  %18 = load %struct.student*, %struct.student** %3, align 8
  %19 = getelementptr inbounds %struct.student, %struct.student* %18, i32 0, i32 4
  %20 = load %struct.student*, %struct.student** %3, align 8
  %21 = getelementptr inbounds %struct.student, %struct.student* %20, i32 0, i32 5
  %22 = call i32 (i8*, ...) @__isoc99_scanf(i8* getelementptr inbounds ([18 x i8], [18 x i8]* @.str.1, i64 0, i64 0), i8* %11, i32* %13, i32* %15, i8* %17, i8* %19, i32* %21)
  store %struct.student* null, %struct.student** %2, align 8
  store i32 1, i32* %5, align 4
  br label %23

23:                                               ; preds = %54, %0
  %24 = load i32, i32* %5, align 4
  %25 = load i32, i32* %1, align 4
  %26 = icmp slt i32 %24, %25
  br i1 %26, label %27, label %57

27:                                               ; preds = %23
  %28 = load i32, i32* %5, align 4
  %29 = icmp eq i32 %28, 1
  br i1 %29, label %30, label %32

30:                                               ; preds = %27
  %31 = load %struct.student*, %struct.student** %3, align 8
  store %struct.student* %31, %struct.student** %2, align 8
  br label %36

32:                                               ; preds = %27
  %33 = load %struct.student*, %struct.student** %3, align 8
  %34 = load %struct.student*, %struct.student** %4, align 8
  %35 = getelementptr inbounds %struct.student, %struct.student* %34, i32 0, i32 6
  store %struct.student* %33, %struct.student** %35, align 8
  br label %36

36:                                               ; preds = %32, %30
  %37 = load %struct.student*, %struct.student** %3, align 8
  store %struct.student* %37, %struct.student** %4, align 8
  %38 = call noalias i8* @malloc(i64 100) #3
  %39 = bitcast i8* %38 to %struct.student*
  store %struct.student* %39, %struct.student** %3, align 8
  %40 = load %struct.student*, %struct.student** %3, align 8
  %41 = getelementptr inbounds %struct.student, %struct.student* %40, i32 0, i32 0
  %42 = getelementptr inbounds [20 x i8], [20 x i8]* %41, i64 0, i64 0
  %43 = load %struct.student*, %struct.student** %3, align 8
  %44 = getelementptr inbounds %struct.student, %struct.student* %43, i32 0, i32 1
  %45 = load %struct.student*, %struct.student** %3, align 8
  %46 = getelementptr inbounds %struct.student, %struct.student* %45, i32 0, i32 2
  %47 = load %struct.student*, %struct.student** %3, align 8
  %48 = getelementptr inbounds %struct.student, %struct.student* %47, i32 0, i32 3
  %49 = load %struct.student*, %struct.student** %3, align 8
  %50 = getelementptr inbounds %struct.student, %struct.student* %49, i32 0, i32 4
  %51 = load %struct.student*, %struct.student** %3, align 8
  %52 = getelementptr inbounds %struct.student, %struct.student* %51, i32 0, i32 5
  %53 = call i32 (i8*, ...) @__isoc99_scanf(i8* getelementptr inbounds ([18 x i8], [18 x i8]* @.str.1, i64 0, i64 0), i8* %42, i32* %44, i32* %46, i8* %48, i8* %50, i32* %52)
  br label %54

54:                                               ; preds = %36
  %55 = load i32, i32* %5, align 4
  %56 = add nsw i32 %55, 1
  store i32 %56, i32* %5, align 4
  br label %23

57:                                               ; preds = %23
  %58 = load %struct.student*, %struct.student** %3, align 8
  %59 = load %struct.student*, %struct.student** %4, align 8
  %60 = getelementptr inbounds %struct.student, %struct.student* %59, i32 0, i32 6
  store %struct.student* %58, %struct.student** %60, align 8
  %61 = load %struct.student*, %struct.student** %3, align 8
  %62 = getelementptr inbounds %struct.student, %struct.student* %61, i32 0, i32 6
  store %struct.student* null, %struct.student** %62, align 8
  %63 = load %struct.student*, %struct.student** %2, align 8
  ret %struct.student* %63
}

declare dso_local i32 @__isoc99_scanf(i8*, ...) #1

; Function Attrs: nounwind
declare dso_local noalias i8* @malloc(i64) #2

; Function Attrs: noinline nounwind uwtable
define dso_local void @main() #0 {
  %1 = alloca %struct.student*, align 8
  %2 = alloca %struct.student*, align 8
  %3 = alloca i32, align 4
  %4 = alloca i32, align 4
  %5 = alloca i32, align 4
  store i32 0, i32* %3, align 4
  store i32 0, i32* %4, align 4
  %6 = call %struct.student* @create()
  store %struct.student* %6, %struct.student** %1, align 8
  br label %7

7:                                                ; preds = %83, %0
  %8 = load %struct.student*, %struct.student** %1, align 8
  %9 = icmp ne %struct.student* %8, null
  br i1 %9, label %10, label %87

10:                                               ; preds = %7
  store i32 0, i32* %5, align 4
  %11 = load %struct.student*, %struct.student** %1, align 8
  %12 = getelementptr inbounds %struct.student, %struct.student* %11, i32 0, i32 1
  %13 = load i32, i32* %12, align 4
  %14 = icmp sgt i32 %13, 80
  br i1 %14, label %15, label %23

15:                                               ; preds = %10
  %16 = load %struct.student*, %struct.student** %1, align 8
  %17 = getelementptr inbounds %struct.student, %struct.student* %16, i32 0, i32 5
  %18 = load i32, i32* %17, align 8
  %19 = icmp sge i32 %18, 1
  br i1 %19, label %20, label %23

20:                                               ; preds = %15
  %21 = load i32, i32* %5, align 4
  %22 = add nsw i32 %21, 8000
  store i32 %22, i32* %5, align 4
  br label %23

23:                                               ; preds = %20, %15, %10
  %24 = load %struct.student*, %struct.student** %1, align 8
  %25 = getelementptr inbounds %struct.student, %struct.student* %24, i32 0, i32 1
  %26 = load i32, i32* %25, align 4
  %27 = icmp sgt i32 %26, 85
  br i1 %27, label %28, label %36

28:                                               ; preds = %23
  %29 = load %struct.student*, %struct.student** %1, align 8
  %30 = getelementptr inbounds %struct.student, %struct.student* %29, i32 0, i32 2
  %31 = load i32, i32* %30, align 8
  %32 = icmp sgt i32 %31, 80
  br i1 %32, label %33, label %36

33:                                               ; preds = %28
  %34 = load i32, i32* %5, align 4
  %35 = add nsw i32 %34, 4000
  store i32 %35, i32* %5, align 4
  br label %36

36:                                               ; preds = %33, %28, %23
  %37 = load %struct.student*, %struct.student** %1, align 8
  %38 = getelementptr inbounds %struct.student, %struct.student* %37, i32 0, i32 1
  %39 = load i32, i32* %38, align 4
  %40 = icmp sgt i32 %39, 90
  br i1 %40, label %41, label %44

41:                                               ; preds = %36
  %42 = load i32, i32* %5, align 4
  %43 = add nsw i32 %42, 2000
  store i32 %43, i32* %5, align 4
  br label %44

44:                                               ; preds = %41, %36
  %45 = load %struct.student*, %struct.student** %1, align 8
  %46 = getelementptr inbounds %struct.student, %struct.student* %45, i32 0, i32 1
  %47 = load i32, i32* %46, align 4
  %48 = icmp sgt i32 %47, 85
  br i1 %48, label %49, label %58

49:                                               ; preds = %44
  %50 = load %struct.student*, %struct.student** %1, align 8
  %51 = getelementptr inbounds %struct.student, %struct.student* %50, i32 0, i32 4
  %52 = load i8, i8* %51, align 1
  %53 = sext i8 %52 to i32
  %54 = icmp eq i32 %53, 89
  br i1 %54, label %55, label %58

55:                                               ; preds = %49
  %56 = load i32, i32* %5, align 4
  %57 = add nsw i32 %56, 1000
  store i32 %57, i32* %5, align 4
  br label %58

58:                                               ; preds = %55, %49, %44
  %59 = load %struct.student*, %struct.student** %1, align 8
  %60 = getelementptr inbounds %struct.student, %struct.student* %59, i32 0, i32 2
  %61 = load i32, i32* %60, align 8
  %62 = icmp sgt i32 %61, 80
  br i1 %62, label %63, label %72

63:                                               ; preds = %58
  %64 = load %struct.student*, %struct.student** %1, align 8
  %65 = getelementptr inbounds %struct.student, %struct.student* %64, i32 0, i32 3
  %66 = load i8, i8* %65, align 4
  %67 = sext i8 %66 to i32
  %68 = icmp eq i32 %67, 89
  br i1 %68, label %69, label %72

69:                                               ; preds = %63
  %70 = load i32, i32* %5, align 4
  %71 = add nsw i32 %70, 850
  store i32 %71, i32* %5, align 4
  br label %72

72:                                               ; preds = %69, %63, %58
  %73 = load i32, i32* %5, align 4
  %74 = load i32, i32* %3, align 4
  %75 = icmp sgt i32 %73, %74
  br i1 %75, label %76, label %79

76:                                               ; preds = %72
  %77 = load i32, i32* %5, align 4
  store i32 %77, i32* %3, align 4
  %78 = load %struct.student*, %struct.student** %1, align 8
  store %struct.student* %78, %struct.student** %2, align 8
  br label %79

79:                                               ; preds = %76, %72
  %80 = load i32, i32* %4, align 4
  %81 = load i32, i32* %5, align 4
  %82 = add nsw i32 %80, %81
  store i32 %82, i32* %4, align 4
  br label %83

83:                                               ; preds = %79
  %84 = load %struct.student*, %struct.student** %1, align 8
  %85 = getelementptr inbounds %struct.student, %struct.student* %84, i32 0, i32 6
  %86 = load %struct.student*, %struct.student** %85, align 8
  store %struct.student* %86, %struct.student** %1, align 8
  br label %7

87:                                               ; preds = %7
  %88 = load %struct.student*, %struct.student** %2, align 8
  %89 = getelementptr inbounds %struct.student, %struct.student* %88, i32 0, i32 0
  %90 = getelementptr inbounds [20 x i8], [20 x i8]* %89, i64 0, i64 0
  %91 = load i32, i32* %3, align 4
  %92 = load i32, i32* %4, align 4
  %93 = call i32 (i8*, ...) @printf(i8* getelementptr inbounds ([9 x i8], [9 x i8]* @.str.2, i64 0, i64 0), i8* %90, i32 %91, i32 %92)
  ret void
}

declare dso_local i32 @printf(i8*, ...) #1


!llvm.module.flags = !{!0}
!llvm.ident = !{!1}

!0 = !{i32 1, !"wchar_size", i32 4}
!1 = !{!"clang version 10.0.0-4ubuntu1 "}
